(dp1
S'output'
p2
S"<type 'exceptions.AttributeError'> 'NoneType' object has no attribute 'append'"
p3
sS'layer'
p4
S'/home/sriram/stryker/web2py/applications/Nouncompounds/controllers/default.py'
p5
sS'code'
p6
S'# -*- coding: utf-8 -*-\n# this file is released under public domain and you can use without limitations\n\n#########################################################################\n## This is a sample controller\n## - index is the default action of any application\n## - user is required for authentication and authorization\n## - download is for downloading files uploaded in the db (does streaming)\n#########################################################################\nimport re\nimport os\nimport linecache\ndef index():\n    form=FORM(\'Enter Noun Compound\', INPUT(_name=\'name\'), INPUT(_type=\'submit\'))\n    res=[]\n    val=[]\n    if form.process().accepted:\n        a=form.vars.name\n        a=a.split(\' \')\n        a=a[0]+\'_NN \'+a[1]+\'_NN\'\n        rows = db(db.ncs.nc==a).select()\n        if rows:\n            sets = db(db.nnpp.nn==a).select()\n            for row in rows:\n                res.append(str(linecache.getline(\'../projects/paraphrase/pos_out/ukwac_out_1.txt\', row.line)))\n            for set in sets:\n                b=set.pp\n                k = db(db.pps.pp==b).select()\n                for j in k:\n                    val = val.append(str(linecache.getline(\'../projects/paraphrase/pos_out/ukwac_out_1.txt\', j.line)))\n        \n        else:\n            ret = "No such Noun compound Exists"\n    return dict(form=form,res=res,val=val)\n\n\ndef user():\n    """\n    exposes:\n    http://..../[app]/default/user/login\n    http://..../[app]/default/user/logout\n    http://..../[app]/default/user/register\n    http://..../[app]/default/user/profile\n    http://..../[app]/default/user/retrieve_password\n    http://..../[app]/default/user/change_password\n    http://..../[app]/default/user/manage_users (requires membership in\n    use @auth.requires_login()\n        @auth.requires_membership(\'group name\')\n        @auth.requires_permission(\'read\',\'table name\',record_id)\n    to decorate functions that need access control\n    """\n    return dict(form=auth())\n\n\n@cache.action()\ndef download():\n    """\n    allows downloading of uploaded files\n    http://..../[app]/default/download/[filename]\n    """\n    return response.download(request, db)\n\n\ndef call():\n    """\n    exposes services. for example:\n    http://..../[app]/default/call/jsonrpc\n    decorate with @services.jsonrpc the functions to expose\n    supports xml, json, xmlrpc, jsonrpc, amfrpc, rss, csv\n    """\n    return service()\n\nresponse._vars=response._caller(index)\n'
p7
sS'snapshot'
p8
(dp9
sS'traceback'
p10
S'Traceback (most recent call last):\n  File "/home/sriram/stryker/web2py/gluon/restricted.py", line 227, in restricted\n    exec ccode in environment\n  File "/home/sriram/stryker/web2py/applications/Nouncompounds/controllers/default.py", line 73, in <module>\n  File "/home/sriram/stryker/web2py/gluon/globals.py", line 412, in <lambda>\n    self._caller = lambda f: f()\n  File "/home/sriram/stryker/web2py/applications/Nouncompounds/controllers/default.py", line 30, in index\n    val = val.append(str(linecache.getline(\'../projects/paraphrase/pos_out/ukwac_out_1.txt\', j.line)))\nAttributeError: \'NoneType\' object has no attribute \'append\'\n'
p11
s.